ccopy_reg
_reconstructor
p0
(ctexts
CipherText
p1
c__builtin__
object
p2
Ntp3
Rp4
(dp5
S'a'
p6
g0
(ccurve
Coord
p7
c__builtin__
tuple
p8
(L593601753490128469510068759130298015070252587254891647248503992736L
L894066327412404167442493024197978877297834080301132309613392697774L
tp9
tp10
Rp11
sS'b'
p12
g0
(g7
g8
(L1839053493135597586147280490621724574612038654970795137071498212730L
L774619982489983278949585095021438706972237081028989668349874684813L
tp13
tp14
Rp15
sb.