ccopy_reg
_reconstructor
p0
(ctexts
CipherText
p1
c__builtin__
object
p2
Ntp3
Rp4
(dp5
S'a'
p6
g0
(ccurve
Coord
p7
c__builtin__
tuple
p8
(L1456912825527951422554372639318932256131833969037229728635226104742L
L595184049523545144686518682683748868613033431142668478102869013201L
tp9
tp10
Rp11
sS'b'
p12
g0
(g7
g8
(L2401211486889294901656031422529157475882578377437654293681011844634L
L1155111495362782243471037496431376007588587110299598265462854043168L
tp13
tp14
Rp15
sb.